; Function Attrs: nounwind uwtable
define void @tng_compress_int_to_double(ptr noundef readonly captures(none) %0, i64 noundef %1, i64 noundef %2, i32 noundef %3, i32 noundef %4, ptr noundef writeonly captures(none) %5) local_unnamed_addr #0 {
  %7 = tail call double @Ptngc_i32x2_to_d(i64 noundef %1, i64 noundef %2) #13
  %8 = icmp sgt i32 %4, 0
  %9 = icmp sgt i32 %3, 0
  %or.cond.i = and i1 %9, %8
  br i1 %or.cond.i, label %.preheader21.us.preheader.i, label %unquantize.exit

.preheader21.us.preheader.i:                      ; preds = %6
  %10 = zext nneg i32 %3 to i64
  %wide.trip.count35.i = zext nneg i32 %4 to i64
  br label %.preheader21.us.i

.preheader21.us.i:                                ; preds = %._crit_edge.us.i, %.preheader21.us.preheader.i
  %indvars.iv32.i = phi i64 [ 0, %.preheader21.us.preheader.i ], [ %indvars.iv.next33.i, %._crit_edge.us.i ]
  %11 = mul nuw nsw i64 %indvars.iv32.i, %10
  br label %.preheader.us.i

12:                                               ; preds = %13
  %indvars.iv.next29.i = add nuw nsw i64 %indvars.iv28.i, 1
  %exitcond31.not.i = icmp eq i64 %indvars.iv.next29.i, %10
  br i1 %exitcond31.not.i, label %._crit_edge.us.i, label %.preheader.us.i, !llvm.loop !37

13:                                               ; preds = %.preheader.us.i, %13
  %indvars.iv.i = phi i64 [ 0, %.preheader.us.i ], [ %indvars.iv.next.i, %13 ]
  %14 = add nsw i64 %indvars.iv.i, %21
  %15 = getelementptr inbounds i32, ptr %0, i64 %14
  %16 = load i32, ptr %15, align 4, !tbaa !3
  %17 = sitofp i32 %16 to double
  %18 = fmul double %7, %17
  %19 = getelementptr inbounds double, ptr %5, i64 %14
  store double %18, ptr %19, align 8, !tbaa !21
  %indvars.iv.next.i = add nuw nsw i64 %indvars.iv.i, 1
  %exitcond.not.i = icmp eq i64 %indvars.iv.next.i, 3
  br i1 %exitcond.not.i, label %12, label %13, !llvm.loop !38

.preheader.us.i:                                  ; preds = %12, %.preheader21.us.i
  %indvars.iv28.i = phi i64 [ 0, %.preheader21.us.i ], [ %indvars.iv.next29.i, %12 ]
  %20 = add nuw nsw i64 %indvars.iv28.i, %11
  %sext.i = mul i64 %20, 12884901888
  %21 = ashr exact i64 %sext.i, 32
  br label %13

._crit_edge.us.i:                                 ; preds = %12
  %indvars.iv.next33.i = add nuw nsw i64 %indvars.iv32.i, 1
  %exitcond36.not.i = icmp eq i64 %indvars.iv.next33.i, %wide.trip.count35.i
  br i1 %exitcond36.not.i, label %unquantize.exit, label %.preheader21.us.i, !llvm.loop !39

unquantize.exit:                                  ; preds = %._crit_edge.us.i, %6
  ret void
}